Certificate:
    Data:
        Version: 3 (0x2)
        Serial Number:
            7c:7f:93:16:a0:ae:85:a8:f0:95:0a:08:e6:2d:e2:da
    Signature Algorithm: sha256WithRSAEncryption
        Issuer: CN=Easy-RSA CA
        Validity
            Not Before: May 11 07:34:02 2018 GMT
            Not After : May  8 07:34:02 2028 GMT
        Subject: CN=openvpn-client
        Subject Public Key Info:
            Public Key Algorithm: rsaEncryption
                Public-Key: (2048 bit)
                Modulus:
                    00:e2:4e:40:4f:57:b4:fe:62:1d:a4:42:6f:b6:6d:
                    5f:9f:c0:3b:7e:b6:4c:aa:de:b0:62:53:6a:98:1d:
                    01:e5:a5:54:7b:71:38:9a:31:69:a3:12:9d:f3:22:
                    e9:cc:0f:ba:31:77:d1:bf:e1:fa:0a:2d:ea:6f:a3:
                    a9:5b:fa:6e:21:9d:2a:25:b1:72:30:53:0f:61:5d:
                    36:61:40:49:79:4b:60:60:e3:e8:44:df:96:24:0d:
                    3e:5a:cd:db:26:f2:78:64:73:be:88:74:6b:b4:ce:
                    82:28:5d:e7:87:d3:e3:42:c8:76:7c:52:d4:36:ef:
                    a0:e9:35:25:2b:67:ce:34:c8:99:c5:4a:35:4b:d9:
                    b7:f4:4e:9b:41:4c:bc:48:4b:d6:cd:04:c9:39:3a:
                    c5:1f:7d:d8:5f:3b:a0:33:7d:99:65:90:6b:41:3c:
                    2b:f4:e6:4a:42:45:cd:82:48:c6:b9:ef:9a:6f:7a:
                    da:0a:59:43:44:ac:7a:73:b1:ed:59:fa:45:09:81:
                    83:cf:6a:0a:a3:b4:b7:c9:05:80:03:f9:b0:82:fd:
                    35:dc:90:61:2c:c6:41:ed:af:dc:3e:ba:36:20:5c:
                    39:0d:41:b9:72:6d:29:17:8d:99:7d:c9:cb:9d:dc:
                    d7:00:ea:d6:db:7d:04:9c:73:d8:17:38:d8:fa:a0:
                    43:7d
                Exponent: 65537 (0x10001)
        X509v3 extensions:
            X509v3 Basic Constraints: 
                CA:FALSE
            X509v3 Subject Key Identifier: 
                58:80:68:C6:B7:E3:27:88:4C:7B:EB:7E:74:02:D9:34:B9:5C:41:02
            X509v3 Authority Key Identifier: 
                keyid:01:7D:D7:16:93:0E:7A:BA:91:2D:31:BA:59:38:E0:15:CF:10:FD:3C
                DirName:/CN=Easy-RSA CA
                serial:AB:AC:17:17:37:EE:E5:F5

            X509v3 Extended Key Usage: 
                TLS Web Client Authentication
            X509v3 Key Usage: 
                Digital Signature
    Signature Algorithm: sha256WithRSAEncryption
         21:42:fa:76:04:79:93:dd:d2:f0:f3:a5:2a:f0:9a:72:c2:0f:
         7a:93:d7:c6:cc:72:c4:6e:7d:b5:de:70:5d:65:15:08:12:f6:
         c5:47:f0:6f:80:44:53:eb:5d:33:b1:de:2d:bf:b3:7e:58:cb:
         b9:b3:89:b5:c3:3b:42:8f:b5:20:de:5a:06:d2:03:cf:1e:51:
         9c:32:3e:0d:85:cc:52:6b:cb:01:3c:da:53:59:f6:ad:5b:a2:
         15:29:53:ed:43:45:06:38:75:28:06:af:2f:7f:ac:4c:59:29:
         da:b8:0c:5a:02:70:64:7a:ee:db:da:bb:87:e5:38:21:c1:be:
         29:4e:2c:f8:c3:09:6b:c8:2d:cb:72:da:b7:46:a1:57:07:6b:
         8a:f8:00:ac:1d:f4:60:cb:e8:fc:2e:6c:45:b0:b7:0d:81:d6:
         8e:df:da:5f:56:29:2c:91:23:2f:13:ac:6a:8d:82:cb:21:09:
         63:91:32:8a:d9:7b:c0:2a:82:dd:32:2e:83:31:57:4e:6c:e3:
         f8:6d:cd:d4:d9:d4:99:39:8d:c3:0e:6c:86:b9:fb:cc:05:37:
         28:9e:16:ce:bc:a2:38:b3:60:a9:4f:77:c2:89:d2:18:27:70:
         1c:6c:27:5b:84:6b:b5:e8:22:05:67:b7:8d:c7:e9:3f:69:54:
         12:c7:b6:aa
-----BEGIN CERTIFICATE-----
MIIDUTCCAjmgAwIBAgIQfH+TFqCuhajwlQoI5i3i2jANBgkqhkiG9w0BAQsFADAW
MRQwEgYDVQQDDAtFYXN5LVJTQSBDQTAeFw0xODA1MTEwNzM0MDJaFw0yODA1MDgw
NzM0MDJaMBkxFzAVBgNVBAMMDm9wZW52cG4tY2xpZW50MIIBIjANBgkqhkiG9w0B
AQEFAAOCAQ8AMIIBCgKCAQEA4k5AT1e0/mIdpEJvtm1fn8A7frZMqt6wYlNqmB0B
5aVUe3E4mjFpoxKd8yLpzA+6MXfRv+H6Ci3qb6OpW/puIZ0qJbFyMFMPYV02YUBJ
eUtgYOPoRN+WJA0+Ws3bJvJ4ZHO+iHRrtM6CKF3nh9PjQsh2fFLUNu+g6TUlK2fO
NMiZxUo1S9m39E6bQUy8SEvWzQTJOTrFH33YXzugM32ZZZBrQTwr9OZKQkXNgkjG
ue+ab3raCllDRKx6c7HtWfpFCYGDz2oKo7S3yQWAA/mwgv013JBhLMZB7a/cPro2
IFw5DUG5cm0pF42ZfcnLndzXAOrW230EnHPYFzjY+qBDfQIDAQABo4GXMIGUMAkG
A1UdEwQCMAAwHQYDVR0OBBYEFFiAaMa34yeITHvrfnQC2TS5XEECMEYGA1UdIwQ/
MD2AFAF91xaTDnq6kS0xulk44BXPEP08oRqkGDAWMRQwEgYDVQQDDAtFYXN5LVJT
QSBDQYIJAKusFxc37uX1MBMGA1UdJQQMMAoGCCsGAQUFBwMCMAsGA1UdDwQEAwIH
gDANBgkqhkiG9w0BAQsFAAOCAQEAIUL6dgR5k93S8POlKvCacsIPepPXxsxyxG59
td5wXWUVCBL2xUfwb4BEU+tdM7HeLb+zfljLubOJtcM7Qo+1IN5aBtIDzx5RnDI+
DYXMUmvLATzaU1n2rVuiFSlT7UNFBjh1KAavL3+sTFkp2rgMWgJwZHru29q7h+U4
IcG+KU4s+MMJa8gty3Lat0ahVwdrivgArB30YMvo/C5sRbC3DYHWjt/aX1YpLJEj
LxOsao2CyyEJY5Eyitl7wCqC3TIugzFXTmzj+G3N1NnUmTmNww5shrn7zAU3KJ4W
zryiOLNgqU93wonSGCdwHGwnW4RrtegiBWe3jcfpP2lUEse2qg==
-----END CERTIFICATE-----
