Certificate:
    Data:
        Version: 3 (0x2)
        Serial Number:
            92:be:dd:57:96:10:7c:3a:65:66:fa:67:b6:1f:64:b4
    Signature Algorithm: sha256WithRSAEncryption
        Issuer: CN=Easy-RSA CA
        Validity
            Not Before: May 11 07:31:59 2018 GMT
            Not After : May  8 07:31:59 2028 GMT
        Subject: CN=opevpn-server.ex.ample
        Subject Public Key Info:
            Public Key Algorithm: rsaEncryption
                Public-Key: (2048 bit)
                Modulus:
                    00:c0:6d:07:f4:93:2c:8a:60:63:7d:b0:0a:59:ce:
                    bd:25:03:d8:db:8e:88:1d:4e:a9:f4:a9:01:1d:3f:
                    7f:a6:f9:db:6c:ef:b6:28:5d:b6:2d:d3:a4:ef:e5:
                    e2:56:3f:e8:5a:c5:66:7b:b4:d0:21:dc:3f:3c:48:
                    1f:9a:3d:4a:33:6b:0c:68:e1:df:1e:8c:4b:d6:39:
                    54:e6:df:07:b7:60:e3:7a:11:4a:10:7e:f4:bb:0d:
                    22:0b:51:4a:53:b4:f1:f6:29:64:27:b3:74:bf:9c:
                    32:8c:27:b4:bc:47:c3:91:37:d2:23:b6:52:e3:d9:
                    43:9e:09:d7:c2:ca:2c:17:d0:dc:cb:bd:56:a3:7f:
                    2b:e5:e3:cc:72:10:88:53:69:79:67:37:0a:46:cf:
                    f6:83:73:e0:20:3d:d2:7a:31:f7:ba:ee:07:dc:fe:
                    c6:4c:e6:c1:d2:e3:26:f6:fa:6b:41:3d:41:37:18:
                    f2:ba:16:83:1a:31:0a:d8:c8:37:7d:df:4f:b5:7e:
                    5a:ca:30:bb:8c:44:af:ce:66:f0:78:2e:11:71:47:
                    61:d7:e9:7b:2f:b5:00:f0:f7:11:6a:3b:d3:1a:81:
                    20:38:71:5c:e7:b3:6d:65:cc:6a:12:21:de:04:59:
                    fe:62:6a:c3:a0:83:55:cb:b8:d4:9c:02:db:2c:dd:
                    6f:e9
                Exponent: 65537 (0x10001)
        X509v3 extensions:
            X509v3 Basic Constraints: 
                CA:FALSE
            X509v3 Subject Key Identifier: 
                E0:15:B1:55:5D:3D:6E:C6:66:CD:2A:F6:86:82:94:50:32:25:DC:96
            X509v3 Authority Key Identifier: 
                keyid:01:7D:D7:16:93:0E:7A:BA:91:2D:31:BA:59:38:E0:15:CF:10:FD:3C
                DirName:/CN=Easy-RSA CA
                serial:AB:AC:17:17:37:EE:E5:F5

            X509v3 Extended Key Usage: 
                TLS Web Server Authentication
            X509v3 Key Usage: 
                Digital Signature, Key Encipherment
            X509v3 Subject Alternative Name: 
                DNS:opevpn-server.ex.ample
    Signature Algorithm: sha256WithRSAEncryption
         ae:c4:3a:75:e5:60:09:52:c0:9e:e8:22:1c:c2:79:7d:48:bc:
         2f:fb:f7:69:6c:0c:fa:92:b5:05:94:b0:58:bd:64:e0:47:66:
         c5:de:ab:3e:48:42:b6:33:c5:98:12:8f:55:9a:fa:7c:b5:28:
         48:83:57:0f:c9:4e:16:a7:65:c2:5c:7b:5a:cb:25:93:ee:97:
         a1:93:be:10:cc:d1:8d:83:3b:39:09:08:c9:4a:a8:ba:bf:57:
         9a:e2:8c:5b:1b:51:75:84:5d:f1:48:cc:00:6c:e9:3d:83:25:
         42:d7:60:e8:99:9e:eb:68:ae:24:2b:7c:01:7f:02:45:a7:0d:
         7c:25:5c:7f:04:c9:7a:9c:33:4a:17:7a:64:83:ab:14:8b:c0:
         26:61:61:68:e9:4c:06:b9:de:42:25:3a:25:71:fe:ca:48:d1:
         dc:1f:f1:5a:10:38:47:48:2b:3d:19:7d:a2:56:1b:4e:a0:36:
         a5:0d:57:5b:57:1c:d8:f0:f5:fc:74:b5:86:c0:ff:1f:7c:58:
         e8:c0:a1:4d:ec:54:3b:1a:62:8c:9c:c7:a8:46:a8:3e:8b:43:
         76:80:00:8b:26:bf:16:f3:87:30:ec:81:ed:d0:5a:52:d9:84:
         28:4d:ba:3d:24:05:79:a9:d7:6c:bb:dd:67:23:3b:de:d1:a8:
         f8:fe:a6:fe
-----BEGIN CERTIFICATE-----
MIIDfTCCAmWgAwIBAgIRAJK+3VeWEHw6ZWb6Z7YfZLQwDQYJKoZIhvcNAQELBQAw
FjEUMBIGA1UEAwwLRWFzeS1SU0EgQ0EwHhcNMTgwNTExMDczMTU5WhcNMjgwNTA4
MDczMTU5WjAhMR8wHQYDVQQDDBZvcGV2cG4tc2VydmVyLmV4LmFtcGxlMIIBIjAN
BgkqhkiG9w0BAQEFAAOCAQ8AMIIBCgKCAQEAwG0H9JMsimBjfbAKWc69JQPY246I
HU6p9KkBHT9/pvnbbO+2KF22LdOk7+XiVj/oWsVme7TQIdw/PEgfmj1KM2sMaOHf
HoxL1jlU5t8Ht2DjehFKEH70uw0iC1FKU7Tx9ilkJ7N0v5wyjCe0vEfDkTfSI7ZS
49lDngnXwsosF9Dcy71Wo38r5ePMchCIU2l5ZzcKRs/2g3PgID3SejH3uu4H3P7G
TObB0uMm9vprQT1BNxjyuhaDGjEK2Mg3fd9PtX5ayjC7jESvzmbweC4RcUdh1+l7
L7UA8PcRajvTGoEgOHFc57NtZcxqEiHeBFn+YmrDoINVy7jUnALbLN1v6QIDAQAB
o4G6MIG3MAkGA1UdEwQCMAAwHQYDVR0OBBYEFOAVsVVdPW7GZs0q9oaClFAyJdyW
MEYGA1UdIwQ/MD2AFAF91xaTDnq6kS0xulk44BXPEP08oRqkGDAWMRQwEgYDVQQD
DAtFYXN5LVJTQSBDQYIJAKusFxc37uX1MBMGA1UdJQQMMAoGCCsGAQUFBwMBMAsG
A1UdDwQEAwIFoDAhBgNVHREEGjAYghZvcGV2cG4tc2VydmVyLmV4LmFtcGxlMA0G
CSqGSIb3DQEBCwUAA4IBAQCuxDp15WAJUsCe6CIcwnl9SLwv+/dpbAz6krUFlLBY
vWTgR2bF3qs+SEK2M8WYEo9Vmvp8tShIg1cPyU4Wp2XCXHtayyWT7pehk74QzNGN
gzs5CQjJSqi6v1ea4oxbG1F1hF3xSMwAbOk9gyVC12DomZ7raK4kK3wBfwJFpw18
JVx/BMl6nDNKF3pkg6sUi8AmYWFo6UwGud5CJTolcf7KSNHcH/FaEDhHSCs9GX2i
VhtOoDalDVdbVxzY8PX8dLWGwP8ffFjowKFN7FQ7GmKMnMeoRqg+i0N2gACLJr8W
84cw7IHt0FpS2YQoTbo9JAV5qddsu91nIzve0aj4/qb+
-----END CERTIFICATE-----
